; Function Attrs: mustprogress uwtable
define void @_ZN3net15SpdyHeaderBlock6insertERKSt4pairIN4base16BasicStringPieceINSt7__cxx1112basic_stringIcSt11char_traitsIcESaIcEEEEESA_E(ptr noundef nonnull align 8 dereferenceable(88) %0, ptr noundef nonnull readonly align 8 captures(none) dereferenceable(32) %1) local_unnamed_addr #7 align 2 {
  %.sroa.01.0.copyload = load ptr, ptr %1, align 8, !tbaa !18
  %.sroa.22.0..sroa_idx = getelementptr inbounds nuw i8, ptr %1, i64 8
  %.sroa.22.0.copyload = load i64, ptr %.sroa.22.0..sroa_idx, align 8, !tbaa !19
  %3 = getelementptr inbounds nuw i8, ptr %1, i64 16
  %.sroa.0.0.copyload = load ptr, ptr %3, align 8, !tbaa !18
  %.sroa.2.0..sroa_idx = getelementptr inbounds nuw i8, ptr %1, i64 24
  %.sroa.2.0.copyload = load i64, ptr %.sroa.2.0..sroa_idx, align 8, !tbaa !19
  tail call void @_ZN3net15SpdyHeaderBlock21ReplaceOrAppendHeaderEN4base16BasicStringPieceINSt7__cxx1112basic_stringIcSt11char_traitsIcESaIcEEEEES9_(ptr noundef nonnull align 8 dereferenceable(88) %0, ptr %.sroa.01.0.copyload, i64 %.sroa.22.0.copyload, ptr %.sroa.0.0.copyload, i64 %.sroa.2.0.copyload)
  ret void
}